target datalayout = "e-m:e-p270:32:32-p271:32:32-p272:64:64-i64:64-i128:128-f80:128-n8:16:32:64-S128"
target triple = "x86_64-pc-linux-gnu"

%"struct.pxrInternal_v0_24__pxrReserved__::TsTest_SplineData::InnerLoopParams" = type { i8, double, double, double, double, i8, double }

; Function Attrs: mustprogress nounwind uwtable
define noundef zeroext i1 @_ZNK32pxrInternal_v0_24__pxrReserved__17TsTest_SplineData15InnerLoopParamseqERKS1_(ptr noundef nonnull align 8 dereferenceable(56) %0, ptr noundef nonnull align 8 dereferenceable(56) %1) #2 align 2 {
  %3 = alloca ptr, align 8
  %4 = alloca ptr, align 8
  store ptr %0, ptr %3, align 8
  store ptr %1, ptr %4, align 8
  %5 = load ptr, ptr %3, align 8
  %6 = getelementptr inbounds nuw %"struct.pxrInternal_v0_24__pxrReserved__::TsTest_SplineData::InnerLoopParams", ptr %5, i32 0, i32 0
  %7 = load i8, ptr %6, align 8
  %8 = trunc i8 %7 to i1
  %9 = zext i1 %8 to i32
  %10 = load ptr, ptr %4, align 8
  %11 = getelementptr inbounds nuw %"struct.pxrInternal_v0_24__pxrReserved__::TsTest_SplineData::InnerLoopParams", ptr %10, i32 0, i32 0
  %12 = load i8, ptr %11, align 8
  %13 = trunc i8 %12 to i1
  %14 = zext i1 %13 to i32
  %15 = icmp eq i32 %9, %14
  br i1 %15, label %16, label %62

16:                                               ; preds = %2
  %17 = getelementptr inbounds nuw %"struct.pxrInternal_v0_24__pxrReserved__::TsTest_SplineData::InnerLoopParams", ptr %5, i32 0, i32 1
  %18 = load double, ptr %17, align 8
  %19 = load ptr, ptr %4, align 8
  %20 = getelementptr inbounds nuw %"struct.pxrInternal_v0_24__pxrReserved__::TsTest_SplineData::InnerLoopParams", ptr %19, i32 0, i32 1
  %21 = load double, ptr %20, align 8
  %22 = fcmp oeq double %18, %21
  br i1 %22, label %23, label %62

23:                                               ; preds = %16
  %24 = getelementptr inbounds nuw %"struct.pxrInternal_v0_24__pxrReserved__::TsTest_SplineData::InnerLoopParams", ptr %5, i32 0, i32 2
  %25 = load double, ptr %24, align 8
  %26 = load ptr, ptr %4, align 8
  %27 = getelementptr inbounds nuw %"struct.pxrInternal_v0_24__pxrReserved__::TsTest_SplineData::InnerLoopParams", ptr %26, i32 0, i32 2
  %28 = load double, ptr %27, align 8
  %29 = fcmp oeq double %25, %28
  br i1 %29, label %30, label %62

30:                                               ; preds = %23
  %31 = getelementptr inbounds nuw %"struct.pxrInternal_v0_24__pxrReserved__::TsTest_SplineData::InnerLoopParams", ptr %5, i32 0, i32 3
  %32 = load double, ptr %31, align 8
  %33 = load ptr, ptr %4, align 8
  %34 = getelementptr inbounds nuw %"struct.pxrInternal_v0_24__pxrReserved__::TsTest_SplineData::InnerLoopParams", ptr %33, i32 0, i32 3
  %35 = load double, ptr %34, align 8
  %36 = fcmp oeq double %32, %35
  br i1 %36, label %37, label %62

37:                                               ; preds = %30
  %38 = getelementptr inbounds nuw %"struct.pxrInternal_v0_24__pxrReserved__::TsTest_SplineData::InnerLoopParams", ptr %5, i32 0, i32 4
  %39 = load double, ptr %38, align 8
  %40 = load ptr, ptr %4, align 8
  %41 = getelementptr inbounds nuw %"struct.pxrInternal_v0_24__pxrReserved__::TsTest_SplineData::InnerLoopParams", ptr %40, i32 0, i32 4
  %42 = load double, ptr %41, align 8
  %43 = fcmp oeq double %39, %42
  br i1 %43, label %44, label %62

44:                                               ; preds = %37
  %45 = getelementptr inbounds nuw %"struct.pxrInternal_v0_24__pxrReserved__::TsTest_SplineData::InnerLoopParams", ptr %5, i32 0, i32 5
  %46 = load i8, ptr %45, align 8
  %47 = trunc i8 %46 to i1
  %48 = zext i1 %47 to i32
  %49 = load ptr, ptr %4, align 8
  %50 = getelementptr inbounds nuw %"struct.pxrInternal_v0_24__pxrReserved__::TsTest_SplineData::InnerLoopParams", ptr %49, i32 0, i32 5
  %51 = load i8, ptr %50, align 8
  %52 = trunc i8 %51 to i1
  %53 = zext i1 %52 to i32
  %54 = icmp eq i32 %48, %53
  br i1 %54, label %55, label %62

55:                                               ; preds = %44
  %56 = getelementptr inbounds nuw %"struct.pxrInternal_v0_24__pxrReserved__::TsTest_SplineData::InnerLoopParams", ptr %5, i32 0, i32 6
  %57 = load double, ptr %56, align 8
  %58 = load ptr, ptr %4, align 8
  %59 = getelementptr inbounds nuw %"struct.pxrInternal_v0_24__pxrReserved__::TsTest_SplineData::InnerLoopParams", ptr %58, i32 0, i32 6
  %60 = load double, ptr %59, align 8
  %61 = fcmp oeq double %57, %60
  br label %62

62:                                               ; preds = %55, %44, %37, %30, %23, %16, %2
  %63 = phi i1 [ false, %44 ], [ false, %37 ], [ false, %30 ], [ false, %23 ], [ false, %16 ], [ false, %2 ], [ %61, %55 ]
  ret i1 %63
}